; Function Attrs: nounwind uwtable
define internal i32 @rtsp_connect(ptr noundef %0, ptr noundef %1) #0 {
  %3 = tail call i32 @Curl_http_connect(ptr noundef %0, ptr noundef %1) #7
  %4 = getelementptr inbounds nuw i8, ptr %0, i64 4480
  %5 = load i64, ptr %4, align 8, !tbaa !80
  %6 = icmp eq i64 %5, 0
  br i1 %6, label %7, label %8

7:                                                ; preds = %2
  store i64 1, ptr %4, align 8, !tbaa !80
  br label %8

8:                                                ; preds = %7, %2
  %9 = getelementptr inbounds nuw i8, ptr %0, i64 4488
  %10 = load i64, ptr %9, align 8, !tbaa !117
  %11 = icmp eq i64 %10, 0
  br i1 %11, label %12, label %13

12:                                               ; preds = %8
  store i64 1, ptr %9, align 8, !tbaa !117
  br label %13

13:                                               ; preds = %12, %8
  %14 = getelementptr inbounds nuw i8, ptr %0, i64 24
  %15 = load ptr, ptr %14, align 8, !tbaa !8
  %16 = getelementptr inbounds nuw i8, ptr %15, i64 1120
  store i32 -1, ptr %16, align 8, !tbaa !7
  ret i32 %3
}